#include <math.h>
#include <stdio.h>
#include <stdlib.h>
#include <string.h>

int main()
{
	int i,a[12]={31,28,31,30,31,30,31,31,30,31,30,31};
	int sum=0,days,year,month;
	scanf("%d%d%d",&year,&month,&days);
    for(i=0;i<month-1;i++)
	{	sum=sum+a[i];}
	sum=sum+days;
	if((month==2&&days>=28)||(month>2))
	{
	     if((year%4==0&&year%100!=0)||(year%400==0))
	          sum=sum+1;
	}
	printf("%d\n",sum);
	return 0;
}

